(dp1
S'map'
p2
(lp3
(F0
F1.25
F1.25
F1.25
tp4
a(F1.25
F1.25
F2.5
F1.25
tp5
a(F2.5
F1.25
F3.75
F1.25
tp6
a(F3.75
F1.25
F5
F1.25
tp7
a(F5
F1.25
F6.25
F1.25
tp8
a(F6.25
F1.25
F7.5
F1.25
tp9
a(F7.5
F1.25
F8.75
F1.25
tp10
a(F8.75
F1.25
F10
F1.25
tp11
a(F0
F2.5
F1.25
F2.5
tp12
a(F8.75
F2.5
F10
F2.5
tp13
a(F0
F3.75
F1.25
F3.75
tp14
a(F8.75
F3.75
F10
F3.75
tp15
a(F0
F5
F1.25
F5
tp16
a(F8.75
F5
F10
F5
tp17
a(F0
F6.25
F1.25
F6.25
tp18
a(F8.75
F6.25
F10
F6.25
tp19
a(F0
F7.5
F1.25
F7.5
tp20
a(F8.75
F7.5
F10
F7.5
tp21
a(F0
F8.75
F1.25
F8.75
tp22
a(F8.75
F8.75
F10
F8.75
tp23
a(F0
F10
F1.25
F10
tp24
a(F8.75
F10
F10
F10
tp25
a(F0
F11.25
F1.25
F11.25
tp26
a(F8.75
F11.25
F10
F11.25
tp27
a(F0
F12.5
F1.25
F12.5
tp28
a(F8.75
F12.5
F10
F12.5
tp29
a(F0
F13.75
F1.25
F13.75
tp30
a(F8.75
F13.75
F10
F13.75
tp31
a(F0
F15
F1.25
F15
tp32
a(F8.75
F15
F10
F15
tp33
a(F0
F16.25
F1.25
F16.25
tp34
a(F3.75
F16.25
F5
F16.25
tp35
a(F8.75
F16.25
F10
F16.25
tp36
a(F0
F17.5
F1.25
F17.5
tp37
a(F3.75
F17.5
F5
F17.5
tp38
a(F8.75
F17.5
F10
F17.5
tp39
a(F0
F18.75
F1.25
F18.75
tp40
a(F2.5
F18.75
F3.75
F18.75
tp41
a(F3.75
F18.75
F5
F18.75
tp42
a(F8.75
F18.75
F10
F18.75
tp43
a(F0
F20
F1.25
F20
tp44
a(F1.25
F20
F2.5
F20
tp45
a(F2.5
F20
F3.75
F20
tp46
a(F3.75
F20
F5
F20
tp47
a(F5
F20
F6.25
F20
tp48
a(F6.25
F20
F7.5
F20
tp49
a(F8.75
F20
F10
F20
tp50
a(F0
F21.25
F1.25
F21.25
tp51
a(F1.25
F21.25
F2.5
F21.25
tp52
a(F2.5
F21.25
F3.75
F21.25
tp53
a(F5
F21.25
F6.25
F21.25
tp54
a(F6.25
F21.25
F7.5
F21.25
tp55
a(F8.75
F21.25
F10
F21.25
tp56
a(F0
F22.5
F1.25
F22.5
tp57
a(F1.25
F22.5
F2.5
F22.5
tp58
a(F2.5
F22.5
F3.75
F22.5
tp59
a(F6.25
F22.5
F7.5
F22.5
tp60
a(F7.5
F22.5
F8.75
F22.5
tp61
a(F8.75
F22.5
F10
F22.5
tp62
a(F0
F0
F0
F1.25
tp63
a(F0
F1.25
F0
F2.5
tp64
a(F0
F2.5
F0
F3.75
tp65
a(F0
F3.75
F0
F5
tp66
a(F0
F5
F0
F6.25
tp67
a(F0
F6.25
F0
F7.5
tp68
a(F0
F7.5
F0
F8.75
tp69
a(F0
F8.75
F0
F10
tp70
a(F0
F10
F0
F11.25
tp71
a(F0
F11.25
F0
F12.5
tp72
a(F0
F12.5
F0
F13.75
tp73
a(F0
F13.75
F0
F15
tp74
a(F0
F15
F0
F16.25
tp75
a(F0
F16.25
F0
F17.5
tp76
a(F0
F17.5
F0
F18.75
tp77
a(F0
F18.75
F0
F20
tp78
a(F0
F20
F0
F21.25
tp79
a(F0
F21.25
F0
F22.5
tp80
a(F0
F22.5
F0
F23.75
tp81
a(F1.25
F11.25
F1.25
F12.5
tp82
a(F1.25
F12.5
F1.25
F13.75
tp83
a(F1.25
F18.75
F1.25
F20
tp84
a(F1.25
F20
F1.25
F21.25
tp85
a(F1.25
F21.25
F1.25
F22.5
tp86
a(F2.5
F0
F2.5
F1.25
tp87
a(F2.5
F1.25
F2.5
F2.5
tp88
a(F2.5
F18.75
F2.5
F20
tp89
a(F2.5
F20
F2.5
F21.25
tp90
a(F2.5
F21.25
F2.5
F22.5
tp91
a(F2.5
F22.5
F2.5
F23.75
tp92
a(F3.75
F0
F3.75
F1.25
tp93
a(F3.75
F15
F3.75
F16.25
tp94
a(F3.75
F16.25
F3.75
F17.5
tp95
a(F3.75
F17.5
F3.75
F18.75
tp96
a(F3.75
F18.75
F3.75
F20
tp97
a(F3.75
F20
F3.75
F21.25
tp98
a(F3.75
F22.5
F3.75
F23.75
tp99
a(F5
F0
F5
F1.25
tp100
a(F5
F18.75
F5
F20
tp101
a(F5
F20
F5
F21.25
tp102
a(F5
F22.5
F5
F23.75
tp103
a(F6.25
F0
F6.25
F1.25
tp104
a(F6.25
F18.75
F6.25
F20
tp105
a(F6.25
F20
F6.25
F21.25
tp106
a(F6.25
F22.5
F6.25
F23.75
tp107
a(F7.5
F0
F7.5
F1.25
tp108
a(F7.5
F1.25
F7.5
F2.5
tp109
a(F7.5
F22.5
F7.5
F23.75
tp110
a(F8.75
F0
F8.75
F1.25
tp111
a(F8.75
F1.25
F8.75
F2.5
tp112
a(F8.75
F22.5
F8.75
F23.75
tp113
a(F2.5
F12.5
F2.5
F13.75
tp114
a(F2.5
F13.75
F2.5
I15
tp115
a(F1.25
F13.75
F2.5
F13.75
tp116
asS'scale'
p117
F0.40000000000000002
s.